; Function Attrs: mustprogress uwtable
define hidden void @_ZN4cvc58internal6theory8booleans18TheoryBoolRewriter11postRewriteENS0_12NodeTemplateILb0EEE(ptr dead_on_unwind noalias writable sret(%"struct.cvc5::internal::theory::RewriteResponse") align 8 %0, ptr noundef nonnull align 8 dereferenceable(80) %1, ptr noundef readonly captures(none) %2) unnamed_addr #3 align 2 personality ptr @__gxx_personality_v0 {
  %4 = alloca %"class.cvc5::internal::NodeTemplate.137", align 8
  %5 = load ptr, ptr %2, align 8, !tbaa !53
  store ptr %5, ptr %4, align 8, !tbaa !53
  %6 = load ptr, ptr %1, align 8, !tbaa !24
  %7 = getelementptr inbounds nuw i8, ptr %6, i64 40
  %8 = load ptr, ptr %7, align 8
  call void %8(ptr dead_on_unwind writable sret(%"struct.cvc5::internal::theory::RewriteResponse") align 8 %0, ptr noundef nonnull align 8 dereferenceable(80) %1, ptr noundef nonnull %4)
  ret void
}